; Function Attrs: mustprogress nofree norecurse nosync nounwind willreturn memory(read, argmem: readwrite, inaccessiblemem: none) uwtable
define hidden void @_ZN6hermes3sem17SemanticValidator23setDirectiveDerivedInfoEPNS_6ESTree16FunctionLikeNodeE(ptr noundef nonnull readonly align 8 captures(none) dereferenceable(168) %this, ptr noundef writeonly captures(none) initializes((56, 64)) %node) local_unnamed_addr #2 align 2 {
entry:
  %funcCtx_.i = getelementptr inbounds nuw i8, ptr %this, i64 152
  %0 = load ptr, ptr %funcCtx_.i, align 8
  %strictMode = getelementptr inbounds nuw i8, ptr %0, i64 80
  %1 = load i8, ptr %strictMode, align 8
  %tobool = trunc i8 %1 to i1
  %cond.i = select i1 %tobool, i32 2, i32 1
  %strictness = getelementptr inbounds nuw i8, ptr %node, i64 56
  store i32 %cond.i, ptr %strictness, align 8
  %2 = load ptr, ptr %funcCtx_.i, align 8
  %sourceVisibility = getelementptr inbounds nuw i8, ptr %2, i64 84
  %3 = load i32, ptr %sourceVisibility, align 4
  %sourceVisibility5 = getelementptr inbounds nuw i8, ptr %node, i64 60
  store i32 %3, ptr %sourceVisibility5, align 4
  ret void
}